target datalayout = "e-m:e-p270:32:32-p271:32:32-p272:64:64-i64:64-i128:128-f80:128-n8:16:32:64-S128"
target triple = "x86_64-pc-linux-gnu"

%struct.H5VL_connector_t = type { ptr, i64, ptr, ptr }

@.str = private unnamed_addr constant [106 x i8] c"generated/home/dtcxzyw/WorkSpace/Projects/compilers/llvm-opt-benchmark/bench/hdf5/hdf5/src/H5VLcallback.c\00", align 1
@H5E_ARGS_g = external global i64, align 8
@H5E_BADTYPE_g = external global i64, align 8
@.str.1 = private unnamed_addr constant [23 x i8] c"not a VOL connector ID\00", align 1
@H5E_VOL_g = external global i64, align 8
@H5E_BADVALUE_g = external global i64, align 8
@.str.17 = private unnamed_addr constant [15 x i8] c"invalid object\00", align 1
@H5E_READERROR_g = external global i64, align 8
@__func__.H5VLattr_read = private unnamed_addr constant [14 x i8] c"H5VLattr_read\00", align 1
@.str.31 = private unnamed_addr constant [25 x i8] c"unable to read attribute\00", align 1

; Function Attrs: nounwind uwtable
define i32 @H5VLattr_read(ptr noundef %0, i64 noundef %1, i64 noundef %2, ptr noundef %3, i64 noundef %4, ptr noundef %5) #0 {
  %7 = alloca ptr, align 8
  %8 = alloca i64, align 8
  %9 = alloca i64, align 8
  %10 = alloca ptr, align 8
  %11 = alloca i64, align 8
  %12 = alloca ptr, align 8
  %13 = alloca ptr, align 8
  %14 = alloca i32, align 4
  %15 = alloca i8, align 1
  store ptr %0, ptr %7, align 8, !tbaa !42
  store i64 %1, ptr %8, align 8, !tbaa !3
  store i64 %2, ptr %9, align 8, !tbaa !3
  store ptr %3, ptr %10, align 8, !tbaa !42
  store i64 %4, ptr %11, align 8, !tbaa !3
  store ptr %5, ptr %12, align 8, !tbaa !42
  call void @llvm.lifetime.start.p0(i64 8, ptr %13) #8
  call void @llvm.lifetime.start.p0(i64 4, ptr %14) #8
  store i32 0, ptr %14, align 4, !tbaa !7
  call void @llvm.lifetime.start.p0(i64 1, ptr %15) #8
  store i8 0, ptr %15, align 1, !tbaa !9
  %16 = load ptr, ptr %7, align 8, !tbaa !42
  %17 = icmp eq ptr null, %16
  br i1 %17, label %18, label %37

18:                                               ; preds = %6
  br label %19

19:                                               ; preds = %18
  br label %20

20:                                               ; preds = %19
  br label %21

21:                                               ; preds = %20
  %22 = load i64, ptr @H5E_ARGS_g, align 8, !tbaa !3
  %23 = load i64, ptr @H5E_BADVALUE_g, align 8, !tbaa !3
  %24 = call i32 (ptr, ptr, i32, i64, i64, ptr, ...) @H5E_printf_stack(ptr noundef @.str, ptr noundef @__func__.H5VLattr_read, i32 noundef 1333, i64 noundef %22, i64 noundef %23, ptr noundef @.str.17)
  br label %25

25:                                               ; preds = %21
  br label %26

26:                                               ; preds = %25
  store i8 1, ptr %15, align 1, !tbaa !9
  %27 = load i8, ptr %15, align 1, !tbaa !9, !range !14, !noundef !15
  %28 = trunc i8 %27 to i1
  %29 = zext i1 %28 to i8
  store i8 %29, ptr %15, align 1, !tbaa !9
  br label %30

30:                                               ; preds = %26
  br label %31

31:                                               ; preds = %30
  br label %32

32:                                               ; preds = %31
  store i32 -1, ptr %14, align 4, !tbaa !7
  br label %91

33:                                               ; No predecessors!
  br label %34

34:                                               ; preds = %33
  br label %35

35:                                               ; preds = %34
  br label %36

36:                                               ; preds = %35
  br label %37

37:                                               ; preds = %36, %6
  %38 = load i64, ptr %8, align 8, !tbaa !3
  %39 = call ptr @H5I_object_verify(i64 noundef %38, i32 noundef 9)
  store ptr %39, ptr %13, align 8, !tbaa !11
  %40 = icmp eq ptr null, %39
  br i1 %40, label %41, label %60

41:                                               ; preds = %37
  br label %42

42:                                               ; preds = %41
  br label %43

43:                                               ; preds = %42
  br label %44

44:                                               ; preds = %43
  %45 = load i64, ptr @H5E_ARGS_g, align 8, !tbaa !3
  %46 = load i64, ptr @H5E_BADTYPE_g, align 8, !tbaa !3
  %47 = call i32 (ptr, ptr, i32, i64, i64, ptr, ...) @H5E_printf_stack(ptr noundef @.str, ptr noundef @__func__.H5VLattr_read, i32 noundef 1335, i64 noundef %45, i64 noundef %46, ptr noundef @.str.1)
  br label %48

48:                                               ; preds = %44
  br label %49

49:                                               ; preds = %48
  store i8 1, ptr %15, align 1, !tbaa !9
  %50 = load i8, ptr %15, align 1, !tbaa !9, !range !14, !noundef !15
  %51 = trunc i8 %50 to i1
  %52 = zext i1 %51 to i8
  store i8 %52, ptr %15, align 1, !tbaa !9
  br label %53

53:                                               ; preds = %49
  br label %54

54:                                               ; preds = %53
  br label %55

55:                                               ; preds = %54
  store i32 -1, ptr %14, align 4, !tbaa !7
  br label %91

56:                                               ; No predecessors!
  br label %57

57:                                               ; preds = %56
  br label %58

58:                                               ; preds = %57
  br label %59

59:                                               ; preds = %58
  br label %60

60:                                               ; preds = %59, %37
  %61 = load ptr, ptr %7, align 8, !tbaa !42
  %62 = load ptr, ptr %13, align 8, !tbaa !11
  %63 = getelementptr inbounds nuw %struct.H5VL_connector_t, ptr %62, i32 0, i32 0
  %64 = load ptr, ptr %63, align 8, !tbaa !16
  %65 = load i64, ptr %9, align 8, !tbaa !3
  %66 = load ptr, ptr %10, align 8, !tbaa !42
  %67 = load i64, ptr %11, align 8, !tbaa !3
  %68 = load ptr, ptr %12, align 8, !tbaa !42
  %69 = call i32 @H5VL__attr_read(ptr noundef %61, ptr noundef %64, i64 noundef %65, ptr noundef %66, i64 noundef %67, ptr noundef %68)
  %70 = icmp slt i32 %69, 0
  br i1 %70, label %71, label %90

71:                                               ; preds = %60
  br label %72

72:                                               ; preds = %71
  br label %73

73:                                               ; preds = %72
  br label %74

74:                                               ; preds = %73
  %75 = load i64, ptr @H5E_VOL_g, align 8, !tbaa !3
  %76 = load i64, ptr @H5E_READERROR_g, align 8, !tbaa !3
  %77 = call i32 (ptr, ptr, i32, i64, i64, ptr, ...) @H5E_printf_stack(ptr noundef @.str, ptr noundef @__func__.H5VLattr_read, i32 noundef 1339, i64 noundef %75, i64 noundef %76, ptr noundef @.str.31)
  br label %78

78:                                               ; preds = %74
  br label %79

79:                                               ; preds = %78
  store i8 1, ptr %15, align 1, !tbaa !9
  %80 = load i8, ptr %15, align 1, !tbaa !9, !range !14, !noundef !15
  %81 = trunc i8 %80 to i1
  %82 = zext i1 %81 to i8
  store i8 %82, ptr %15, align 1, !tbaa !9
  br label %83

83:                                               ; preds = %79
  br label %84

84:                                               ; preds = %83
  br label %85

85:                                               ; preds = %84
  store i32 -1, ptr %14, align 4, !tbaa !7
  br label %91

86:                                               ; No predecessors!
  br label %87

87:                                               ; preds = %86
  br label %88

88:                                               ; preds = %87
  br label %89

89:                                               ; preds = %88
  br label %90

90:                                               ; preds = %89, %60
  br label %91

91:                                               ; preds = %90, %85, %55, %32
  %92 = load i8, ptr %15, align 1, !tbaa !9, !range !14, !noundef !15
  %93 = trunc i8 %92 to i1
  %94 = xor i1 %93, true
  %95 = xor i1 %94, true
  %96 = zext i1 %95 to i32
  %97 = sext i32 %96 to i64
  %98 = call i64 @llvm.expect.i64(i64 %97, i64 0)
  %99 = icmp ne i64 %98, 0
  br i1 %99, label %100, label %102

100:                                              ; preds = %91
  %101 = call i32 @H5E_dump_api_stack()
  br label %102

102:                                              ; preds = %100, %91
  %103 = load i32, ptr %14, align 4, !tbaa !7
  call void @llvm.lifetime.end.p0(i64 1, ptr %15) #8
  call void @llvm.lifetime.end.p0(i64 4, ptr %14) #8
  call void @llvm.lifetime.end.p0(i64 8, ptr %13) #8
  ret i32 %103
}